target datalayout = "e-m:e-p270:32:32-p271:32:32-p272:64:64-i64:64-i128:128-f80:128-n8:16:32:64-S128"
target triple = "x86_64-pc-linux-gnu"

%"class.dap::Deserializer" = type { ptr }
%"struct.dap::json::JsonCppDeserializer" = type <{ %"class.dap::Deserializer", ptr, i8, [7 x i8] }>
%"class.std::__cxx11::basic_string" = type { %"struct.std::__cxx11::basic_string<char>::_Alloc_hider", i64, %union.anon }
%"struct.std::__cxx11::basic_string<char>::_Alloc_hider" = type { ptr }
%union.anon = type { i64, [8 x i8] }
%"class.Json::ValueConstIterator" = type { %"class.Json::ValueIteratorBase.base", [7 x i8] }
%"class.Json::ValueIteratorBase.base" = type <{ %"struct.std::_Rb_tree_iterator", i8 }>
%"struct.std::_Rb_tree_iterator" = type { ptr }
%"class.dap::any" = type { ptr, ptr, ptr, [32 x i8] }
%"class.std::unordered_map" = type { %"class.std::_Hashtable" }
%"class.std::_Hashtable" = type { ptr, i64, %"struct.std::__detail::_Hash_node_base", i64, %"struct.std::__detail::_Prime_rehash_policy", ptr }
%"struct.std::__detail::_Hash_node_base" = type { ptr }
%"struct.std::__detail::_Prime_rehash_policy" = type { float, i64 }

@_ZN3dap4json19JsonCppDeserializerC1EPKN4Json5ValueE = dso_local unnamed_addr alias void (ptr, ptr), ptr @_ZN3dap4json19JsonCppDeserializerC2EPKN4Json5ValueE
@_ZN3dap4json19JsonCppDeserializerD1Ev = dso_local unnamed_addr alias void (ptr), ptr @_ZN3dap4json19JsonCppDeserializerD2Ev

; Function Attrs: mustprogress nounwind uwtable
define linkonce_odr dso_local noundef i64 @_ZNKSt8__detail20_Prime_rehash_policy19_M_bkt_for_elementsEm(ptr noundef nonnull align 8 dereferenceable(16) %0, i64 noundef %1) #1 comdat align 2 {
  %3 = alloca ptr, align 8
  %4 = alloca i64, align 8
  store ptr %0, ptr %3, align 8
  store i64 %1, ptr %4, align 8
  %5 = load ptr, ptr %3, align 8
  %6 = load i64, ptr %4, align 8
  %7 = uitofp i64 %6 to double
  %8 = getelementptr inbounds %"struct.std::__detail::_Prime_rehash_policy", ptr %5, i32 0, i32 0
  %9 = load float, ptr %8, align 8
  %10 = fpext float %9 to double
  %11 = fdiv double %7, %10
  %12 = call double @llvm.ceil.f64(double %11)
  %13 = fptoui double %12 to i64
  ret i64 %13
}

; Function Attrs: mustprogress nounwind uwtable
define linkonce_odr dso_local noundef nonnull align 8 dereferenceable(16) ptr @_ZNKSt10_HashtableINSt7__cxx1112basic_stringIcSt11char_traitsIcESaIcEEESt4pairIKS5_N3dap3anyEESaISA_ENSt8__detail10_Select1stESt8equal_toIS5_ESt4hashIS5_ENSC_18_Mod_range_hashingENSC_20_Default_ranged_hashENSC_20_Prime_rehash_policyENSC_17_Hashtable_traitsILb1ELb0ELb1EEEE15__rehash_policyEv(ptr noundef nonnull align 8 dereferenceable(56) %0) #1 comdat align 2 {
  %2 = alloca ptr, align 8
  store ptr %0, ptr %2, align 8
  %3 = load ptr, ptr %2, align 8
  %4 = getelementptr inbounds %"class.std::_Hashtable", ptr %3, i32 0, i32 4
  ret ptr %4
}

; Function Attrs: mustprogress uwtable
define linkonce_odr dso_local noundef nonnull align 8 dereferenceable(9) ptr @_ZN4Json18ValueConstIteratorppEv(ptr noundef nonnull align 8 dereferenceable(9) %0) #0 comdat align 2 {
  %2 = alloca ptr, align 8
  store ptr %0, ptr %2, align 8
  %3 = load ptr, ptr %2, align 8
  call void @_ZN4Json17ValueIteratorBase9incrementEv(ptr noundef nonnull align 8 dereferenceable(9) %3)
  ret ptr %3
}

; Function Attrs: mustprogress uwtable
define linkonce_odr dso_local void @_ZNSt8__detail12_Rehash_baseINSt7__cxx1112basic_stringIcSt11char_traitsIcESaIcEEESt4pairIKS6_N3dap3anyEESaISB_ENS_10_Select1stESt8equal_toIS6_ESt4hashIS6_ENS_18_Mod_range_hashingENS_20_Default_ranged_hashENS_20_Prime_rehash_policyENS_17_Hashtable_traitsILb1ELb0ELb1EEESt17integral_constantIbLb1EEE7reserveEm(ptr noundef nonnull align 1 dereferenceable(1) %0, i64 noundef %1) #0 comdat align 2 {
  %3 = alloca ptr, align 8
  %4 = alloca i64, align 8
  %5 = alloca ptr, align 8
  store ptr %0, ptr %3, align 8
  store i64 %1, ptr %4, align 8
  %6 = load ptr, ptr %3, align 8
  store ptr %6, ptr %5, align 8
  %7 = load ptr, ptr %5, align 8
  %8 = load ptr, ptr %5, align 8
  %9 = call noundef nonnull align 8 dereferenceable(16) ptr @_ZNKSt10_HashtableINSt7__cxx1112basic_stringIcSt11char_traitsIcESaIcEEESt4pairIKS5_N3dap3anyEESaISA_ENSt8__detail10_Select1stESt8equal_toIS5_ESt4hashIS5_ENSC_18_Mod_range_hashingENSC_20_Default_ranged_hashENSC_20_Prime_rehash_policyENSC_17_Hashtable_traitsILb1ELb0ELb1EEEE15__rehash_policyEv(ptr noundef nonnull align 8 dereferenceable(56) %8)
  %10 = load i64, ptr %4, align 8
  %11 = call noundef i64 @_ZNKSt8__detail20_Prime_rehash_policy19_M_bkt_for_elementsEm(ptr noundef nonnull align 8 dereferenceable(16) %9, i64 noundef %10)
  call void @_ZNSt10_HashtableINSt7__cxx1112basic_stringIcSt11char_traitsIcESaIcEEESt4pairIKS5_N3dap3anyEESaISA_ENSt8__detail10_Select1stESt8equal_toIS5_ESt4hashIS5_ENSC_18_Mod_range_hashingENSC_20_Default_ranged_hashENSC_20_Prime_rehash_policyENSC_17_Hashtable_traitsILb1ELb0ELb1EEEE6rehashEm(ptr noundef nonnull align 8 dereferenceable(56) %7, i64 noundef %11)
  ret void
}

; Function Attrs: mustprogress uwtable
define linkonce_odr dso_local { ptr, i8 } @_ZN4Json18ValueConstIteratorppEi(ptr noundef nonnull align 8 dereferenceable(9) %0, i32 noundef %1) #0 comdat align 2 {
  %3 = alloca %"class.Json::ValueConstIterator", align 8
  %4 = alloca ptr, align 8
  %5 = alloca i32, align 4
  store ptr %0, ptr %4, align 8
  store i32 %1, ptr %5, align 4
  %6 = load ptr, ptr %4, align 8
  call void @llvm.memcpy.p0.p0.i64(ptr align 8 %3, ptr align 8 %6, i64 16, i1 false)
  %7 = call noundef nonnull align 8 dereferenceable(9) ptr @_ZN4Json18ValueConstIteratorppEv(ptr noundef nonnull align 8 dereferenceable(9) %6)
  %8 = load { ptr, i8 }, ptr %3, align 8
  ret { ptr, i8 } %8
}

; Function Attrs: mustprogress uwtable
define linkonce_odr dso_local noundef nonnull align 8 dereferenceable(56) ptr @_ZNSt13unordered_mapINSt7__cxx1112basic_stringIcSt11char_traitsIcESaIcEEEN3dap3anyESt4hashIS5_ESt8equal_toIS5_ESaISt4pairIKS5_S7_EEEixEOS5_(ptr noundef nonnull align 8 dereferenceable(56) %0, ptr noundef nonnull align 8 dereferenceable(32) %1) #0 comdat align 2 {
  %3 = alloca ptr, align 8
  %4 = alloca ptr, align 8
  store ptr %0, ptr %3, align 8
  store ptr %1, ptr %4, align 8
  %5 = load ptr, ptr %3, align 8
  %6 = getelementptr inbounds %"class.std::unordered_map", ptr %5, i32 0, i32 0
  %7 = load ptr, ptr %4, align 8
  %8 = call noundef nonnull align 8 dereferenceable(56) ptr @_ZNSt8__detail9_Map_baseINSt7__cxx1112basic_stringIcSt11char_traitsIcESaIcEEESt4pairIKS6_N3dap3anyEESaISB_ENS_10_Select1stESt8equal_toIS6_ESt4hashIS6_ENS_18_Mod_range_hashingENS_20_Default_ranged_hashENS_20_Prime_rehash_policyENS_17_Hashtable_traitsILb1ELb0ELb1EEELb1EEixEOS6_(ptr noundef nonnull align 1 dereferenceable(1) %6, ptr noundef nonnull align 8 dereferenceable(32) %7)
  ret ptr %8
}

; Function Attrs: mustprogress nounwind uwtable
define linkonce_odr dso_local void @_ZN3dap3anyC2Ev(ptr noundef nonnull align 8 dereferenceable(56) %0) unnamed_addr #1 comdat align 2 {
  %2 = alloca ptr, align 8
  store ptr %0, ptr %2, align 8
  %3 = load ptr, ptr %2, align 8
  %4 = getelementptr inbounds %"class.dap::any", ptr %3, i32 0, i32 0
  store ptr null, ptr %4, align 8
  %5 = getelementptr inbounds %"class.dap::any", ptr %3, i32 0, i32 1
  store ptr null, ptr %5, align 8
  %6 = getelementptr inbounds %"class.dap::any", ptr %3, i32 0, i32 2
  store ptr null, ptr %6, align 8
  ret void
}

; Function Attrs: mustprogress uwtable
define linkonce_odr dso_local noundef nonnull align 8 dereferenceable(40) ptr @_ZNK4Json18ValueConstIteratordeEv(ptr noundef nonnull align 8 dereferenceable(9) %0) #0 comdat align 2 {
  %2 = alloca ptr, align 8
  store ptr %0, ptr %2, align 8
  %3 = load ptr, ptr %2, align 8
  %4 = call noundef nonnull align 8 dereferenceable(40) ptr @_ZNK4Json17ValueIteratorBase5derefEv(ptr noundef nonnull align 8 dereferenceable(9) %3)
  ret ptr %4
}

; Function Attrs: mustprogress uwtable
define linkonce_odr dso_local noundef zeroext i1 @_ZNK4Json17ValueIteratorBaseneERKS0_(ptr noundef nonnull align 8 dereferenceable(9) %0, ptr noundef nonnull align 8 dereferenceable(9) %1) #0 comdat align 2 {
  %3 = alloca ptr, align 8
  %4 = alloca ptr, align 8
  store ptr %0, ptr %3, align 8
  store ptr %1, ptr %4, align 8
  %5 = load ptr, ptr %3, align 8
  %6 = load ptr, ptr %4, align 8
  %7 = call noundef zeroext i1 @_ZNK4Json17ValueIteratorBase7isEqualERKS0_(ptr noundef nonnull align 8 dereferenceable(9) %5, ptr noundef nonnull align 8 dereferenceable(9) %6)
  %8 = xor i1 %7, true
  ret i1 %8
}

; Function Attrs: mustprogress uwtable
define linkonce_odr dso_local void @_ZNSt13unordered_mapINSt7__cxx1112basic_stringIcSt11char_traitsIcESaIcEEEN3dap3anyESt4hashIS5_ESt8equal_toIS5_ESaISt4pairIKS5_S7_EEE7reserveEm(ptr noundef nonnull align 8 dereferenceable(56) %0, i64 noundef %1) #0 comdat align 2 {
  %3 = alloca ptr, align 8
  %4 = alloca i64, align 8
  store ptr %0, ptr %3, align 8
  store i64 %1, ptr %4, align 8
  %5 = load ptr, ptr %3, align 8
  %6 = getelementptr inbounds %"class.std::unordered_map", ptr %5, i32 0, i32 0
  %7 = load i64, ptr %4, align 8
  call void @_ZNSt8__detail12_Rehash_baseINSt7__cxx1112basic_stringIcSt11char_traitsIcESaIcEEESt4pairIKS6_N3dap3anyEESaISB_ENS_10_Select1stESt8equal_toIS6_ESt4hashIS6_ENS_18_Mod_range_hashingENS_20_Default_ranged_hashENS_20_Prime_rehash_policyENS_17_Hashtable_traitsILb1ELb0ELb1EEESt17integral_constantIbLb1EEE7reserveEm(ptr noundef nonnull align 1 dereferenceable(1) %6, i64 noundef %7)
  ret void
}

; Function Attrs: mustprogress uwtable
define dso_local noundef zeroext i1 @_ZNK3dap4json19JsonCppDeserializer11deserializeEPSt13unordered_mapINSt7__cxx1112basic_stringIcSt11char_traitsIcESaIcEEENS_3anyESt4hashIS8_ESt8equal_toIS8_ESaISt4pairIKS8_S9_EEE(ptr noundef nonnull align 8 dereferenceable(17) %0, ptr noundef %1) unnamed_addr #0 align 2 personality ptr @__gxx_personality_v0 {
  %3 = alloca i1, align 1
  %4 = alloca ptr, align 8
  %5 = alloca ptr, align 8
  %6 = alloca %"class.Json::ValueConstIterator", align 8
  %7 = alloca %"class.Json::ValueConstIterator", align 8
  %8 = alloca %"struct.dap::json::JsonCppDeserializer", align 8
  %9 = alloca %"class.dap::any", align 8
  %10 = alloca ptr, align 8
  %11 = alloca i32, align 4
  %12 = alloca i32, align 4
  %13 = alloca %"class.std::__cxx11::basic_string", align 8
  %14 = alloca %"class.Json::ValueConstIterator", align 8
  store ptr %0, ptr %4, align 8
  store ptr %1, ptr %5, align 8
  %15 = load ptr, ptr %4, align 8
  %16 = load ptr, ptr %5, align 8
  %17 = getelementptr inbounds %"struct.dap::json::JsonCppDeserializer", ptr %15, i32 0, i32 1
  %18 = load ptr, ptr %17, align 8
  %19 = call noundef i32 @_ZNK4Json5Value4sizeEv(ptr noundef nonnull align 8 dereferenceable(40) %18)
  %20 = zext i32 %19 to i64
  call void @_ZNSt13unordered_mapINSt7__cxx1112basic_stringIcSt11char_traitsIcESaIcEEEN3dap3anyESt4hashIS5_ESt8equal_toIS5_ESaISt4pairIKS5_S7_EEE7reserveEm(ptr noundef nonnull align 8 dereferenceable(56) %16, i64 noundef %20)
  %21 = getelementptr inbounds %"struct.dap::json::JsonCppDeserializer", ptr %15, i32 0, i32 1
  %22 = load ptr, ptr %21, align 8
  %23 = call { ptr, i8 } @_ZNK4Json5Value5beginEv(ptr noundef nonnull align 8 dereferenceable(40) %22)
  %24 = getelementptr inbounds { ptr, i8 }, ptr %6, i32 0, i32 0
  %25 = extractvalue { ptr, i8 } %23, 0
  store ptr %25, ptr %24, align 8
  %26 = getelementptr inbounds { ptr, i8 }, ptr %6, i32 0, i32 1
  %27 = extractvalue { ptr, i8 } %23, 1
  store i8 %27, ptr %26, align 8
  br label %28

28:                                               ; preds = %56, %2
  %29 = getelementptr inbounds %"struct.dap::json::JsonCppDeserializer", ptr %15, i32 0, i32 1
  %30 = load ptr, ptr %29, align 8
  %31 = call { ptr, i8 } @_ZNK4Json5Value3endEv(ptr noundef nonnull align 8 dereferenceable(40) %30)
  %32 = getelementptr inbounds { ptr, i8 }, ptr %7, i32 0, i32 0
  %33 = extractvalue { ptr, i8 } %31, 0
  store ptr %33, ptr %32, align 8
  %34 = getelementptr inbounds { ptr, i8 }, ptr %7, i32 0, i32 1
  %35 = extractvalue { ptr, i8 } %31, 1
  store i8 %35, ptr %34, align 8
  %36 = call noundef zeroext i1 @_ZNK4Json17ValueIteratorBaseneERKS0_(ptr noundef nonnull align 8 dereferenceable(9) %6, ptr noundef nonnull align 8 dereferenceable(9) %7)
  br i1 %36, label %37, label %67

37:                                               ; preds = %28
  %38 = call noundef nonnull align 8 dereferenceable(40) ptr @_ZNK4Json18ValueConstIteratordeEv(ptr noundef nonnull align 8 dereferenceable(9) %6)
  call void @_ZN3dap4json19JsonCppDeserializerC1EPKN4Json5ValueE(ptr noundef nonnull align 8 dereferenceable(17) %8, ptr noundef %38)
  call void @_ZN3dap3anyC2Ev(ptr noundef nonnull align 8 dereferenceable(56) %9) #13
  %39 = invoke noundef zeroext i1 @_ZNK3dap4json19JsonCppDeserializer11deserializeEPNS_3anyE(ptr noundef nonnull align 8 dereferenceable(17) %8, ptr noundef %9)
          to label %40 unwind label %42

40:                                               ; preds = %37
  br i1 %39, label %46, label %41

41:                                               ; preds = %40
  store i1 false, ptr %3, align 1
  store i32 1, ptr %12, align 4
  br label %53

42:                                               ; preds = %46, %37
  %43 = landingpad { ptr, i32 }
          cleanup
  %44 = extractvalue { ptr, i32 } %43, 0
  store ptr %44, ptr %10, align 8
  %45 = extractvalue { ptr, i32 } %43, 1
  store i32 %45, ptr %11, align 4
  br label %66

46:                                               ; preds = %40
  %47 = load ptr, ptr %5, align 8
  invoke void @_ZNK4Json17ValueIteratorBase4nameB5cxx11Ev(ptr dead_on_unwind writable sret(%"class.std::__cxx11::basic_string") align 8 %13, ptr noundef nonnull align 8 dereferenceable(9) %6)
          to label %48 unwind label %42

48:                                               ; preds = %46
  %49 = invoke noundef nonnull align 8 dereferenceable(56) ptr @_ZNSt13unordered_mapINSt7__cxx1112basic_stringIcSt11char_traitsIcESaIcEEEN3dap3anyESt4hashIS5_ESt8equal_toIS5_ESaISt4pairIKS5_S7_EEEixEOS5_(ptr noundef nonnull align 8 dereferenceable(56) %47, ptr noundef nonnull align 8 dereferenceable(32) %13)
          to label %50 unwind label %62

50:                                               ; preds = %48
  %51 = invoke noundef nonnull align 8 dereferenceable(56) ptr @_ZN3dap3anyaSERKS0_(ptr noundef nonnull align 8 dereferenceable(56) %49, ptr noundef nonnull align 8 dereferenceable(56) %9)
          to label %52 unwind label %62

52:                                               ; preds = %50
  call void @_ZNSt7__cxx1112basic_stringIcSt11char_traitsIcESaIcEED1Ev(ptr noundef nonnull align 8 dereferenceable(32) %13) #13
  store i32 0, ptr %12, align 4
  br label %53

53:                                               ; preds = %52, %41
  call void @_ZN3dap3anyD2Ev(ptr noundef nonnull align 8 dereferenceable(56) %9) #13
  call void @_ZN3dap4json19JsonCppDeserializerD1Ev(ptr noundef nonnull align 8 dereferenceable(17) %8) #13
  %54 = load i32, ptr %12, align 4
  switch i32 %54, label %75 [
    i32 0, label %55
    i32 1, label %68
  ]

55:                                               ; preds = %53
  br label %56

56:                                               ; preds = %55
  %57 = call { ptr, i8 } @_ZN4Json18ValueConstIteratorppEi(ptr noundef nonnull align 8 dereferenceable(9) %6, i32 noundef 0)
  %58 = getelementptr inbounds { ptr, i8 }, ptr %14, i32 0, i32 0
  %59 = extractvalue { ptr, i8 } %57, 0
  store ptr %59, ptr %58, align 8
  %60 = getelementptr inbounds { ptr, i8 }, ptr %14, i32 0, i32 1
  %61 = extractvalue { ptr, i8 } %57, 1
  store i8 %61, ptr %60, align 8
  br label %28, !llvm.loop !5

62:                                               ; preds = %50, %48
  %63 = landingpad { ptr, i32 }
          cleanup
  %64 = extractvalue { ptr, i32 } %63, 0
  store ptr %64, ptr %10, align 8
  %65 = extractvalue { ptr, i32 } %63, 1
  store i32 %65, ptr %11, align 4
  call void @_ZNSt7__cxx1112basic_stringIcSt11char_traitsIcESaIcEED1Ev(ptr noundef nonnull align 8 dereferenceable(32) %13) #13
  br label %66

66:                                               ; preds = %62, %42
  call void @_ZN3dap3anyD2Ev(ptr noundef nonnull align 8 dereferenceable(56) %9) #13
  call void @_ZN3dap4json19JsonCppDeserializerD1Ev(ptr noundef nonnull align 8 dereferenceable(17) %8) #13
  br label %70

67:                                               ; preds = %28
  store i1 true, ptr %3, align 1
  br label %68

68:                                               ; preds = %67, %53
  %69 = load i1, ptr %3, align 1
  ret i1 %69

70:                                               ; preds = %66
  %71 = load ptr, ptr %10, align 8
  %72 = load i32, ptr %11, align 4
  %73 = insertvalue { ptr, i32 } poison, ptr %71, 0
  %74 = insertvalue { ptr, i32 } %73, i32 %72, 1
  resume { ptr, i32 } %74

75:                                               ; preds = %53
  unreachable
}