; Function Attrs: mustprogress uwtable
define dso_local noundef zeroext i1 @_ZNK3dap4json19JsonCppDeserializer11deserializeEPSt13unordered_mapINSt7__cxx1112basic_stringIcSt11char_traitsIcESaIcEEENS_3anyESt4hashIS8_ESt8equal_toIS8_ESaISt4pairIKS8_S9_EEE(ptr nocapture noundef nonnull readonly align 8 dereferenceable(17) %0, ptr noundef %1) unnamed_addr #0 align 2 personality ptr @__gxx_personality_v0 {
  %3 = alloca %"class.Json::ValueConstIterator", align 8
  %4 = alloca %"class.Json::ValueConstIterator", align 8
  %5 = alloca %"struct.dap::json::JsonCppDeserializer", align 8
  %6 = alloca %"class.dap::any", align 8
  %7 = alloca %"class.std::__cxx11::basic_string", align 8
  %8 = getelementptr inbounds i8, ptr %0, i64 8
  %9 = load ptr, ptr %8, align 8
  %10 = tail call noundef i32 @_ZNK4Json5Value4sizeEv(ptr noundef nonnull align 8 dereferenceable(40) %9)
  %11 = getelementptr inbounds i8, ptr %1, i64 32
  %12 = uitofp i32 %10 to double
  %13 = load float, ptr %11, align 8
  %14 = fpext float %13 to double
  %15 = fdiv double %12, %14
  %16 = tail call double @llvm.ceil.f64(double %15)
  %17 = fptoui double %16 to i64
  tail call void @_ZNSt10_HashtableINSt7__cxx1112basic_stringIcSt11char_traitsIcESaIcEEESt4pairIKS5_N3dap3anyEESaISA_ENSt8__detail10_Select1stESt8equal_toIS5_ESt4hashIS5_ENSC_18_Mod_range_hashingENSC_20_Default_ranged_hashENSC_20_Prime_rehash_policyENSC_17_Hashtable_traitsILb1ELb0ELb1EEEE6rehashEm(ptr noundef nonnull align 8 dereferenceable(56) %1, i64 noundef %17)
  %18 = load ptr, ptr %8, align 8
  %19 = tail call { ptr, i8 } @_ZNK4Json5Value5beginEv(ptr noundef nonnull align 8 dereferenceable(40) %18)
  %20 = extractvalue { ptr, i8 } %19, 0
  store ptr %20, ptr %3, align 8
  %21 = getelementptr inbounds i8, ptr %3, i64 8
  %22 = extractvalue { ptr, i8 } %19, 1
  store i8 %22, ptr %21, align 8
  %23 = load ptr, ptr %8, align 8
  %24 = tail call { ptr, i8 } @_ZNK4Json5Value3endEv(ptr noundef nonnull align 8 dereferenceable(40) %23)
  %25 = extractvalue { ptr, i8 } %24, 0
  store ptr %25, ptr %4, align 8
  %26 = getelementptr inbounds i8, ptr %4, i64 8
  %27 = extractvalue { ptr, i8 } %24, 1
  store i8 %27, ptr %26, align 8
  %28 = call noundef zeroext i1 @_ZNK4Json17ValueIteratorBase7isEqualERKS0_(ptr noundef nonnull align 8 dereferenceable(9) %3, ptr noundef nonnull align 8 dereferenceable(9) %4)
  br i1 %28, label %._crit_edge, label %.lr.ph

.lr.ph:                                           ; preds = %2
  %29 = getelementptr inbounds i8, ptr %5, i64 8
  %30 = getelementptr inbounds i8, ptr %5, i64 16
  %31 = getelementptr inbounds i8, ptr %6, i64 8
  %32 = getelementptr inbounds i8, ptr %6, i64 16
  br label %33

33:                                               ; preds = %.lr.ph, %62
  %34 = call noundef nonnull align 8 dereferenceable(40) ptr @_ZNK4Json17ValueIteratorBase5derefEv(ptr noundef nonnull align 8 dereferenceable(9) %3)
  store ptr getelementptr inbounds ({ [13 x ptr] }, ptr @_ZTVN3dap4json19JsonCppDeserializerE, i64 0, i32 0, i64 2), ptr %5, align 8
  store ptr %34, ptr %29, align 8
  store i8 0, ptr %30, align 8
  call void @llvm.memset.p0.i64(ptr noundef nonnull align 8 dereferenceable(24) %6, i8 0, i64 24, i1 false)
  %35 = invoke noundef zeroext i1 @_ZNK3dap4json19JsonCppDeserializer11deserializeEPNS_3anyE(ptr noundef nonnull align 8 dereferenceable(17) %5, ptr noundef nonnull %6)
          to label %36 unwind label %37

36:                                               ; preds = %33
  br i1 %35, label %39, label %44

37:                                               ; preds = %39, %33
  %38 = landingpad { ptr, i32 }
          cleanup
  br label %70

39:                                               ; preds = %36
  invoke void @_ZNK4Json17ValueIteratorBase4nameB5cxx11Ev(ptr dead_on_unwind nonnull writable sret(%"class.std::__cxx11::basic_string") align 8 %7, ptr noundef nonnull align 8 dereferenceable(9) %3)
          to label %40 unwind label %37

40:                                               ; preds = %39
  %41 = invoke noundef nonnull align 8 dereferenceable(56) ptr @_ZNSt8__detail9_Map_baseINSt7__cxx1112basic_stringIcSt11char_traitsIcESaIcEEESt4pairIKS6_N3dap3anyEESaISB_ENS_10_Select1stESt8equal_toIS6_ESt4hashIS6_ENS_18_Mod_range_hashingENS_20_Default_ranged_hashENS_20_Prime_rehash_policyENS_17_Hashtable_traitsILb1ELb0ELb1EEELb1EEixEOS6_(ptr noundef nonnull align 1 dereferenceable(1) %1, ptr noundef nonnull align 8 dereferenceable(32) %7)
          to label %_ZNSt13unordered_mapINSt7__cxx1112basic_stringIcSt11char_traitsIcESaIcEEEN3dap3anyESt4hashIS5_ESt8equal_toIS5_ESaISt4pairIKS5_S7_EEEixEOS5_.exit unwind label %68

_ZNSt13unordered_mapINSt7__cxx1112basic_stringIcSt11char_traitsIcESaIcEEEN3dap3anyESt4hashIS5_ESt8equal_toIS5_ESaISt4pairIKS5_S7_EEEixEOS5_.exit: ; preds = %40
  %42 = invoke noundef nonnull align 8 dereferenceable(56) ptr @_ZN3dap3anyaSERKS0_(ptr noundef nonnull align 8 dereferenceable(56) %41, ptr noundef nonnull align 8 dereferenceable(56) %6)
          to label %43 unwind label %68

43:                                               ; preds = %_ZNSt13unordered_mapINSt7__cxx1112basic_stringIcSt11char_traitsIcESaIcEEEN3dap3anyESt4hashIS5_ESt8equal_toIS5_ESaISt4pairIKS5_S7_EEEixEOS5_.exit
  call void @_ZNSt7__cxx1112basic_stringIcSt11char_traitsIcESaIcEED1Ev(ptr noundef nonnull align 8 dereferenceable(32) %7) #21
  br label %44

44:                                               ; preds = %36, %43
  %45 = load ptr, ptr %6, align 8
  %.not.i.i = icmp eq ptr %45, null
  br i1 %.not.i.i, label %_ZN3dap3anyD2Ev.exit, label %46

46:                                               ; preds = %44
  %47 = load ptr, ptr %31, align 8
  %48 = load ptr, ptr %47, align 8
  %49 = getelementptr inbounds i8, ptr %48, i64 56
  %50 = load ptr, ptr %49, align 8
  invoke void %50(ptr noundef nonnull align 8 dereferenceable(8) %47, ptr noundef nonnull %45)
          to label %.noexc.i unwind label %53

.noexc.i:                                         ; preds = %46
  %51 = load ptr, ptr %32, align 8
  %.not.i.i.i = icmp eq ptr %51, null
  br i1 %.not.i.i.i, label %_ZN3dap3anyD2Ev.exit, label %52

52:                                               ; preds = %.noexc.i
  call void @_ZdaPv(ptr noundef nonnull %51) #20
  store ptr null, ptr %32, align 8
  br label %_ZN3dap3anyD2Ev.exit

53:                                               ; preds = %46
  %54 = landingpad { ptr, i32 }
          catch ptr null
  %55 = extractvalue { ptr, i32 } %54, 0
  call void @__clang_call_terminate(ptr %55) #22
  unreachable

_ZN3dap3anyD2Ev.exit:                             ; preds = %44, %.noexc.i, %52
  call void @llvm.memset.p0.i64(ptr noundef nonnull align 8 dereferenceable(16) %6, i8 0, i64 16, i1 false)
  store ptr getelementptr inbounds ({ [13 x ptr] }, ptr @_ZTVN3dap4json19JsonCppDeserializerE, i64 0, i32 0, i64 2), ptr %5, align 8
  %56 = load i8, ptr %30, align 8
  %57 = and i8 %56, 1
  %.not.i = icmp eq i8 %57, 0
  br i1 %.not.i, label %_ZN3dap4json19JsonCppDeserializerD2Ev.exit, label %58

58:                                               ; preds = %_ZN3dap3anyD2Ev.exit
  %59 = load ptr, ptr %29, align 8
  %60 = icmp eq ptr %59, null
  br i1 %60, label %_ZN3dap4json19JsonCppDeserializerD2Ev.exit, label %61

61:                                               ; preds = %58
  call void @_ZN4Json5ValueD1Ev(ptr noundef nonnull align 8 dereferenceable(40) %59) #21
  call void @_ZdlPv(ptr noundef nonnull %59) #20
  br label %_ZN3dap4json19JsonCppDeserializerD2Ev.exit

_ZN3dap4json19JsonCppDeserializerD2Ev.exit:       ; preds = %_ZN3dap3anyD2Ev.exit, %58, %61
  br i1 %35, label %62, label %._crit_edge

62:                                               ; preds = %_ZN3dap4json19JsonCppDeserializerD2Ev.exit
  call void @_ZN4Json17ValueIteratorBase9incrementEv(ptr noundef nonnull align 8 dereferenceable(9) %3)
  %63 = load ptr, ptr %8, align 8
  %64 = call { ptr, i8 } @_ZNK4Json5Value3endEv(ptr noundef nonnull align 8 dereferenceable(40) %63)
  %65 = extractvalue { ptr, i8 } %64, 0
  store ptr %65, ptr %4, align 8
  %66 = extractvalue { ptr, i8 } %64, 1
  store i8 %66, ptr %26, align 8
  %67 = call noundef zeroext i1 @_ZNK4Json17ValueIteratorBase7isEqualERKS0_(ptr noundef nonnull align 8 dereferenceable(9) %3, ptr noundef nonnull align 8 dereferenceable(9) %4)
  br i1 %67, label %._crit_edge, label %33, !llvm.loop !5

68:                                               ; preds = %40, %_ZNSt13unordered_mapINSt7__cxx1112basic_stringIcSt11char_traitsIcESaIcEEEN3dap3anyESt4hashIS5_ESt8equal_toIS5_ESaISt4pairIKS5_S7_EEEixEOS5_.exit
  %69 = landingpad { ptr, i32 }
          cleanup
  call void @_ZNSt7__cxx1112basic_stringIcSt11char_traitsIcESaIcEED1Ev(ptr noundef nonnull align 8 dereferenceable(32) %7) #21
  br label %70

70:                                               ; preds = %68, %37
  %.pn = phi { ptr, i32 } [ %69, %68 ], [ %38, %37 ]
  call void @_ZN3dap3anyD2Ev(ptr noundef nonnull align 8 dereferenceable(56) %6) #21
  call void @_ZN3dap4json19JsonCppDeserializerD2Ev(ptr noundef nonnull align 8 dereferenceable(17) %5) #21
  resume { ptr, i32 } %.pn

._crit_edge:                                      ; preds = %_ZN3dap4json19JsonCppDeserializerD2Ev.exit, %62, %2
  %.lcssa = phi i1 [ true, %2 ], [ %35, %62 ], [ %35, %_ZN3dap4json19JsonCppDeserializerD2Ev.exit ]
  ret i1 %.lcssa
}